; Function Attrs: mustprogress uwtable
define void @_ZN5Ipopt16FilterLSAcceptor5ResetEv(ptr noundef nonnull align 8 dereferenceable(304) %0) unnamed_addr #3 align 2 {
  %2 = getelementptr inbounds i8, ptr %0, i64 280
  store i8 0, ptr %2, align 8
  %3 = getelementptr inbounds i8, ptr %0, i64 284
  store i32 0, ptr %3, align 4
  %4 = getelementptr inbounds i8, ptr %0, i64 248
  tail call void @_ZN5Ipopt6Filter5ClearEv(ptr noundef nonnull align 8 dereferenceable(32) %4)
  ret void
}